; Function Attrs: cold nounwind optsize uwtable
define internal noundef i32 @roq_decode_end(ptr noundef readonly captures(none) %0) #0 {
  %2 = getelementptr inbounds nuw i8, ptr %0, i64 32
  %3 = load ptr, ptr %2, align 8, !tbaa !4
  %4 = getelementptr inbounds nuw i8, ptr %3, i64 24
  tail call void @av_frame_free(ptr noundef nonnull %4) #4
  %5 = getelementptr inbounds nuw i8, ptr %3, i64 16
  tail call void @av_frame_free(ptr noundef nonnull %5) #4
  ret i32 0
}